; Function Attrs: mustprogress uwtable
define noundef nonnull ptr @_ZN7rocksdb17NewSstFileManagerEPNS_3EnvESt10shared_ptrINS_6LoggerEENSt7__cxx1112basic_stringIcSt11char_traitsIcESaIcEEElbPNS_6StatusEdm(ptr noundef nonnull %0, ptr noundef readonly captures(none) %1, ptr noundef %2, i64 noundef %3, i1 noundef zeroext %4, ptr noundef %5, double noundef %6, i64 noundef %7) local_unnamed_addr #4 personality ptr @__gxx_personality_v0 {
  %9 = alloca %"class.std::shared_ptr.3", align 8
  %10 = alloca %"class.std::shared_ptr.6", align 8
  %11 = tail call noundef nonnull align 8 dereferenceable(16) ptr @_ZNK7rocksdb3Env13GetFileSystemEv(ptr noundef nonnull align 8 dereferenceable(72) %0)
  %12 = load ptr, ptr %11, align 8, !tbaa !28
  store ptr %12, ptr %9, align 8, !tbaa !28
  %13 = getelementptr inbounds nuw i8, ptr %9, i64 8
  %14 = getelementptr inbounds nuw i8, ptr %11, i64 8
  %15 = load ptr, ptr %14, align 8, !tbaa !25
  store ptr %15, ptr %13, align 8, !tbaa !25
  %.not.i.i.i = icmp eq ptr %15, null
  br i1 %.not.i.i.i, label %_ZNSt10shared_ptrIN7rocksdb10FileSystemEEC2ERKS2_.exit, label %16

16:                                               ; preds = %8
  %17 = getelementptr inbounds nuw i8, ptr %15, i64 8
  %18 = load i8, ptr @__libc_single_threaded, align 1, !tbaa !17
  %.not.i.i.i.i = icmp eq i8 %18, 0
  br i1 %.not.i.i.i.i, label %22, label %19

19:                                               ; preds = %16
  %20 = load i32, ptr %17, align 4, !tbaa !26
  %21 = add nsw i32 %20, 1
  store i32 %21, ptr %17, align 4, !tbaa !26
  br label %_ZNSt10shared_ptrIN7rocksdb10FileSystemEEC2ERKS2_.exit

22:                                               ; preds = %16
  %23 = atomicrmw volatile add ptr %17, i32 1 acq_rel, align 4
  br label %_ZNSt10shared_ptrIN7rocksdb10FileSystemEEC2ERKS2_.exit

_ZNSt10shared_ptrIN7rocksdb10FileSystemEEC2ERKS2_.exit: ; preds = %8, %19, %22
  %24 = load ptr, ptr %1, align 8, !tbaa !31
  store ptr %24, ptr %10, align 8, !tbaa !31
  %25 = getelementptr inbounds nuw i8, ptr %10, i64 8
  %26 = getelementptr inbounds nuw i8, ptr %1, i64 8
  %27 = load ptr, ptr %26, align 8, !tbaa !25
  store ptr %27, ptr %25, align 8, !tbaa !25
  %.not.i.i.i9 = icmp eq ptr %27, null
  br i1 %.not.i.i.i9, label %_ZNSt10shared_ptrIN7rocksdb6LoggerEEC2ERKS2_.exit, label %28

28:                                               ; preds = %_ZNSt10shared_ptrIN7rocksdb10FileSystemEEC2ERKS2_.exit
  %29 = getelementptr inbounds nuw i8, ptr %27, i64 8
  %30 = load i8, ptr @__libc_single_threaded, align 1, !tbaa !17
  %.not.i.i.i.i10 = icmp eq i8 %30, 0
  br i1 %.not.i.i.i.i10, label %34, label %31

31:                                               ; preds = %28
  %32 = load i32, ptr %29, align 4, !tbaa !26
  %33 = add nsw i32 %32, 1
  store i32 %33, ptr %29, align 4, !tbaa !26
  br label %_ZNSt10shared_ptrIN7rocksdb6LoggerEEC2ERKS2_.exit

34:                                               ; preds = %28
  %35 = atomicrmw volatile add ptr %29, i32 1 acq_rel, align 4
  br label %_ZNSt10shared_ptrIN7rocksdb6LoggerEEC2ERKS2_.exit

_ZNSt10shared_ptrIN7rocksdb6LoggerEEC2ERKS2_.exit: ; preds = %_ZNSt10shared_ptrIN7rocksdb10FileSystemEEC2ERKS2_.exit, %31, %34
  %36 = invoke noundef ptr @_ZN7rocksdb17NewSstFileManagerEPNS_3EnvESt10shared_ptrINS_10FileSystemEES2_INS_6LoggerEERKNSt7__cxx1112basic_stringIcSt11char_traitsIcESaIcEEElbPNS_6StatusEdm(ptr noundef nonnull %0, ptr noundef nonnull %9, ptr noundef nonnull %10, ptr noundef nonnull align 8 dereferenceable(32) %2, i64 noundef %3, i1 noundef zeroext %4, ptr noundef %5, double noundef %6, i64 noundef %7)
          to label %37 unwind label %82

37:                                               ; preds = %_ZNSt10shared_ptrIN7rocksdb6LoggerEEC2ERKS2_.exit
  %38 = load ptr, ptr %25, align 8, !tbaa !25
  %.not.i.i = icmp eq ptr %38, null
  br i1 %.not.i.i, label %_ZNSt12__shared_ptrIN7rocksdb6LoggerELN9__gnu_cxx12_Lock_policyE2EED2Ev.exit, label %39

39:                                               ; preds = %37
  %40 = getelementptr inbounds nuw i8, ptr %38, i64 8
  %41 = load atomic i64, ptr %40 acquire, align 8
  %42 = icmp eq i64 %41, 4294967297
  %43 = trunc i64 %41 to i32
  br i1 %42, label %44, label %52

44:                                               ; preds = %39
  store i32 0, ptr %40, align 8, !tbaa !125
  %45 = getelementptr inbounds nuw i8, ptr %38, i64 12
  store i32 0, ptr %45, align 4, !tbaa !127
  %46 = load ptr, ptr %38, align 8, !tbaa !18
  %47 = getelementptr inbounds nuw i8, ptr %46, i64 16
  %48 = load ptr, ptr %47, align 8
  call void %48(ptr noundef nonnull align 8 dereferenceable(16) %38) #23
  %49 = load ptr, ptr %38, align 8, !tbaa !18
  %50 = getelementptr inbounds nuw i8, ptr %49, i64 24
  %51 = load ptr, ptr %50, align 8
  call void %51(ptr noundef nonnull align 8 dereferenceable(16) %38) #23
  br label %_ZNSt12__shared_ptrIN7rocksdb6LoggerELN9__gnu_cxx12_Lock_policyE2EED2Ev.exit

52:                                               ; preds = %39
  %53 = load i8, ptr @__libc_single_threaded, align 1, !tbaa !17
  %.not.i.i.i11 = icmp eq i8 %53, 0
  br i1 %.not.i.i.i11, label %56, label %54

54:                                               ; preds = %52
  %55 = add nsw i32 %43, -1
  store i32 %55, ptr %40, align 4, !tbaa !26
  br label %_ZN9__gnu_cxx27__exchange_and_add_dispatchEPii.exit.i.i.i

56:                                               ; preds = %52
  %57 = atomicrmw volatile add ptr %40, i32 -1 acq_rel, align 4
  br label %_ZN9__gnu_cxx27__exchange_and_add_dispatchEPii.exit.i.i.i

_ZN9__gnu_cxx27__exchange_and_add_dispatchEPii.exit.i.i.i: ; preds = %56, %54
  %.0.i.i.i.i = phi i32 [ %43, %54 ], [ %57, %56 ]
  %58 = icmp eq i32 %.0.i.i.i.i, 1
  br i1 %58, label %59, label %_ZNSt12__shared_ptrIN7rocksdb6LoggerELN9__gnu_cxx12_Lock_policyE2EED2Ev.exit, !prof !128

59:                                               ; preds = %_ZN9__gnu_cxx27__exchange_and_add_dispatchEPii.exit.i.i.i
  call void @_ZNSt16_Sp_counted_baseILN9__gnu_cxx12_Lock_policyE2EE24_M_release_last_use_coldEv(ptr noundef nonnull align 8 dereferenceable(16) %38) #23
  br label %_ZNSt12__shared_ptrIN7rocksdb6LoggerELN9__gnu_cxx12_Lock_policyE2EED2Ev.exit

_ZNSt12__shared_ptrIN7rocksdb6LoggerELN9__gnu_cxx12_Lock_policyE2EED2Ev.exit: ; preds = %37, %44, %_ZN9__gnu_cxx27__exchange_and_add_dispatchEPii.exit.i.i.i, %59
  %60 = load ptr, ptr %13, align 8, !tbaa !25
  %.not.i.i12 = icmp eq ptr %60, null
  br i1 %.not.i.i12, label %_ZNSt12__shared_ptrIN7rocksdb10FileSystemELN9__gnu_cxx12_Lock_policyE2EED2Ev.exit, label %61

61:                                               ; preds = %_ZNSt12__shared_ptrIN7rocksdb6LoggerELN9__gnu_cxx12_Lock_policyE2EED2Ev.exit
  %62 = getelementptr inbounds nuw i8, ptr %60, i64 8
  %63 = load atomic i64, ptr %62 acquire, align 8
  %64 = icmp eq i64 %63, 4294967297
  %65 = trunc i64 %63 to i32
  br i1 %64, label %66, label %74

66:                                               ; preds = %61
  store i32 0, ptr %62, align 8, !tbaa !125
  %67 = getelementptr inbounds nuw i8, ptr %60, i64 12
  store i32 0, ptr %67, align 4, !tbaa !127
  %68 = load ptr, ptr %60, align 8, !tbaa !18
  %69 = getelementptr inbounds nuw i8, ptr %68, i64 16
  %70 = load ptr, ptr %69, align 8
  call void %70(ptr noundef nonnull align 8 dereferenceable(16) %60) #23
  %71 = load ptr, ptr %60, align 8, !tbaa !18
  %72 = getelementptr inbounds nuw i8, ptr %71, i64 24
  %73 = load ptr, ptr %72, align 8
  call void %73(ptr noundef nonnull align 8 dereferenceable(16) %60) #23
  br label %_ZNSt12__shared_ptrIN7rocksdb10FileSystemELN9__gnu_cxx12_Lock_policyE2EED2Ev.exit

74:                                               ; preds = %61
  %75 = load i8, ptr @__libc_single_threaded, align 1, !tbaa !17
  %.not.i.i.i13 = icmp eq i8 %75, 0
  br i1 %.not.i.i.i13, label %78, label %76

76:                                               ; preds = %74
  %77 = add nsw i32 %65, -1
  store i32 %77, ptr %62, align 4, !tbaa !26
  br label %_ZN9__gnu_cxx27__exchange_and_add_dispatchEPii.exit.i.i.i14

78:                                               ; preds = %74
  %79 = atomicrmw volatile add ptr %62, i32 -1 acq_rel, align 4
  br label %_ZN9__gnu_cxx27__exchange_and_add_dispatchEPii.exit.i.i.i14

_ZN9__gnu_cxx27__exchange_and_add_dispatchEPii.exit.i.i.i14: ; preds = %78, %76
  %.0.i.i.i.i15 = phi i32 [ %65, %76 ], [ %79, %78 ]
  %80 = icmp eq i32 %.0.i.i.i.i15, 1
  br i1 %80, label %81, label %_ZNSt12__shared_ptrIN7rocksdb10FileSystemELN9__gnu_cxx12_Lock_policyE2EED2Ev.exit, !prof !128

81:                                               ; preds = %_ZN9__gnu_cxx27__exchange_and_add_dispatchEPii.exit.i.i.i14
  call void @_ZNSt16_Sp_counted_baseILN9__gnu_cxx12_Lock_policyE2EE24_M_release_last_use_coldEv(ptr noundef nonnull align 8 dereferenceable(16) %60) #23
  br label %_ZNSt12__shared_ptrIN7rocksdb10FileSystemELN9__gnu_cxx12_Lock_policyE2EED2Ev.exit

_ZNSt12__shared_ptrIN7rocksdb10FileSystemELN9__gnu_cxx12_Lock_policyE2EED2Ev.exit: ; preds = %_ZNSt12__shared_ptrIN7rocksdb6LoggerELN9__gnu_cxx12_Lock_policyE2EED2Ev.exit, %66, %_ZN9__gnu_cxx27__exchange_and_add_dispatchEPii.exit.i.i.i14, %81
  ret ptr %36

82:                                               ; preds = %_ZNSt10shared_ptrIN7rocksdb6LoggerEEC2ERKS2_.exit
  %83 = landingpad { ptr, i32 }
          cleanup
  call void @_ZNSt12__shared_ptrIN7rocksdb6LoggerELN9__gnu_cxx12_Lock_policyE2EED2Ev(ptr noundef nonnull align 8 dereferenceable(16) %10) #23
  call void @_ZNSt12__shared_ptrIN7rocksdb10FileSystemELN9__gnu_cxx12_Lock_policyE2EED2Ev(ptr noundef nonnull align 8 dereferenceable(16) %9) #23
  resume { ptr, i32 } %83
}